; Function Attrs: null_pointer_is_valid sspstrong uwtable
define internal i32 @dissect_cipsafety_extended_data(ptr noundef %0, ptr noundef %1, ptr noundef %2, ptr readnone captures(none) %3) #2 {
  %5 = alloca %struct.cip_safety_info, align 8
  %6 = alloca %struct.cip_conn_info, align 8
  call void @llvm.lifetime.start.p0(i64 24, ptr nonnull %5) #7
  call void @llvm.lifetime.start.p0(i64 264, ptr nonnull %6) #7
  call void @llvm.memset.p0.i64(ptr noundef nonnull align 8 dereferenceable(264) %6, i8 noundef 0, i64 noundef 264, i1 noundef false) #7
  %7 = getelementptr inbounds nuw i8, ptr %5, i64 8
  store ptr %6, ptr %7, align 8
  %8 = getelementptr inbounds nuw i8, ptr %5, i64 16
  store i8 0, ptr %8, align 8
  store i32 2, ptr %5, align 8
  %9 = getelementptr inbounds nuw i8, ptr %6, i64 20
  store i32 1, ptr %9, align 4
  %10 = call i32 @dissect_cipsafety(ptr noundef %0, ptr noundef %1, ptr noundef %2, ptr noundef nonnull %5)
  call void @llvm.lifetime.end.p0(i64 264, ptr nonnull %6) #7
  call void @llvm.lifetime.end.p0(i64 24, ptr nonnull %5) #7
  ret i32 %10
}